target datalayout = "e-m:e-p270:32:32-p271:32:32-p272:64:64-i64:64-i128:128-f80:128-n8:16:32:64-S128"
target triple = "x86_64-pc-linux-gnu"

%struct.H5T_t = type { %struct.H5O_shared_t, ptr, %struct.H5O_loc_t, %struct.H5G_name_t, ptr }
%struct.H5O_shared_t = type { i32, ptr, i32, %union.anon }
%union.anon = type { %struct.H5O_mesg_loc_t }
%struct.H5O_mesg_loc_t = type { i32, i64 }
%struct.H5O_loc_t = type { ptr, i64, i8 }
%struct.H5G_name_t = type { ptr, ptr, i32 }
%struct.H5T_shared_t = type { i64, i32, i32, i64, i32, i8, ptr, ptr, %union.anon.0 }
%union.anon.0 = type { %struct.H5T_array_t }
%struct.H5T_array_t = type { i64, i32, [32 x i64] }
%struct.H5T_compnd_t = type { i32, i32, i32, i8, ptr, i64 }
%struct.H5T_cmemb_t = type { ptr, i64, i64, ptr }

; Function Attrs: nounwind uwtable
define internal i32 @H5T__is_packed(ptr noundef %0) #0 {
  %2 = alloca ptr, align 8
  %3 = alloca i32, align 4
  store ptr %0, ptr %2, align 8
  store i32 1, ptr %3, align 4
  br label %4

4:                                                ; preds = %11, %1
  %5 = load ptr, ptr %2, align 8
  %6 = getelementptr inbounds %struct.H5T_t, ptr %5, i32 0, i32 1
  %7 = load ptr, ptr %6, align 8
  %8 = getelementptr inbounds %struct.H5T_shared_t, ptr %7, i32 0, i32 6
  %9 = load ptr, ptr %8, align 8
  %10 = icmp ne ptr %9, null
  br i1 %10, label %11, label %17

11:                                               ; preds = %4
  %12 = load ptr, ptr %2, align 8
  %13 = getelementptr inbounds %struct.H5T_t, ptr %12, i32 0, i32 1
  %14 = load ptr, ptr %13, align 8
  %15 = getelementptr inbounds %struct.H5T_shared_t, ptr %14, i32 0, i32 6
  %16 = load ptr, ptr %15, align 8
  store ptr %16, ptr %2, align 8
  br label %4

17:                                               ; preds = %4
  %18 = load ptr, ptr %2, align 8
  %19 = getelementptr inbounds %struct.H5T_t, ptr %18, i32 0, i32 1
  %20 = load ptr, ptr %19, align 8
  %21 = getelementptr inbounds %struct.H5T_shared_t, ptr %20, i32 0, i32 2
  %22 = load i32, ptr %21, align 4
  %23 = icmp eq i32 %22, 6
  br i1 %23, label %24, label %33

24:                                               ; preds = %17
  %25 = load ptr, ptr %2, align 8
  %26 = getelementptr inbounds %struct.H5T_t, ptr %25, i32 0, i32 1
  %27 = load ptr, ptr %26, align 8
  %28 = getelementptr inbounds %struct.H5T_shared_t, ptr %27, i32 0, i32 8
  %29 = getelementptr inbounds %struct.H5T_compnd_t, ptr %28, i32 0, i32 3
  %30 = load i8, ptr %29, align 4
  %31 = trunc i8 %30 to i1
  %32 = zext i1 %31 to i32
  store i32 %32, ptr %3, align 4
  br label %33

33:                                               ; preds = %24, %17
  %34 = load i32, ptr %3, align 4
  ret i32 %34
}

; Function Attrs: nounwind uwtable
define void @H5T__update_packed(ptr noundef %0) #0 {
  %2 = alloca ptr, align 8
  %3 = alloca i32, align 4
  store ptr %0, ptr %2, align 8
  %4 = load ptr, ptr %2, align 8
  %5 = getelementptr inbounds %struct.H5T_t, ptr %4, i32 0, i32 1
  %6 = load ptr, ptr %5, align 8
  %7 = getelementptr inbounds %struct.H5T_shared_t, ptr %6, i32 0, i32 3
  %8 = load i64, ptr %7, align 8
  %9 = load ptr, ptr %2, align 8
  %10 = getelementptr inbounds %struct.H5T_t, ptr %9, i32 0, i32 1
  %11 = load ptr, ptr %10, align 8
  %12 = getelementptr inbounds %struct.H5T_shared_t, ptr %11, i32 0, i32 8
  %13 = getelementptr inbounds %struct.H5T_compnd_t, ptr %12, i32 0, i32 5
  %14 = load i64, ptr %13, align 8
  %15 = icmp eq i64 %8, %14
  br i1 %15, label %16, label %56

16:                                               ; preds = %1
  %17 = load ptr, ptr %2, align 8
  %18 = getelementptr inbounds %struct.H5T_t, ptr %17, i32 0, i32 1
  %19 = load ptr, ptr %18, align 8
  %20 = getelementptr inbounds %struct.H5T_shared_t, ptr %19, i32 0, i32 8
  %21 = getelementptr inbounds %struct.H5T_compnd_t, ptr %20, i32 0, i32 3
  store i8 1, ptr %21, align 4
  store i32 0, ptr %3, align 4
  br label %22

22:                                               ; preds = %52, %16
  %23 = load i32, ptr %3, align 4
  %24 = load ptr, ptr %2, align 8
  %25 = getelementptr inbounds %struct.H5T_t, ptr %24, i32 0, i32 1
  %26 = load ptr, ptr %25, align 8
  %27 = getelementptr inbounds %struct.H5T_shared_t, ptr %26, i32 0, i32 8
  %28 = getelementptr inbounds %struct.H5T_compnd_t, ptr %27, i32 0, i32 1
  %29 = load i32, ptr %28, align 4
  %30 = icmp ult i32 %23, %29
  br i1 %30, label %31, label %55

31:                                               ; preds = %22
  %32 = load ptr, ptr %2, align 8
  %33 = getelementptr inbounds %struct.H5T_t, ptr %32, i32 0, i32 1
  %34 = load ptr, ptr %33, align 8
  %35 = getelementptr inbounds %struct.H5T_shared_t, ptr %34, i32 0, i32 8
  %36 = getelementptr inbounds %struct.H5T_compnd_t, ptr %35, i32 0, i32 4
  %37 = load ptr, ptr %36, align 8
  %38 = load i32, ptr %3, align 4
  %39 = zext i32 %38 to i64
  %40 = getelementptr inbounds %struct.H5T_cmemb_t, ptr %37, i64 %39
  %41 = getelementptr inbounds %struct.H5T_cmemb_t, ptr %40, i32 0, i32 3
  %42 = load ptr, ptr %41, align 8
  %43 = call i32 @H5T__is_packed(ptr noundef %42)
  %44 = icmp ne i32 %43, 0
  br i1 %44, label %51, label %45

45:                                               ; preds = %31
  %46 = load ptr, ptr %2, align 8
  %47 = getelementptr inbounds %struct.H5T_t, ptr %46, i32 0, i32 1
  %48 = load ptr, ptr %47, align 8
  %49 = getelementptr inbounds %struct.H5T_shared_t, ptr %48, i32 0, i32 8
  %50 = getelementptr inbounds %struct.H5T_compnd_t, ptr %49, i32 0, i32 3
  store i8 0, ptr %50, align 4
  br label %55

51:                                               ; preds = %31
  br label %52

52:                                               ; preds = %51
  %53 = load i32, ptr %3, align 4
  %54 = add i32 %53, 1
  store i32 %54, ptr %3, align 4
  br label %22

55:                                               ; preds = %45, %22
  br label %62

56:                                               ; preds = %1
  %57 = load ptr, ptr %2, align 8
  %58 = getelementptr inbounds %struct.H5T_t, ptr %57, i32 0, i32 1
  %59 = load ptr, ptr %58, align 8
  %60 = getelementptr inbounds %struct.H5T_shared_t, ptr %59, i32 0, i32 8
  %61 = getelementptr inbounds %struct.H5T_compnd_t, ptr %60, i32 0, i32 3
  store i8 0, ptr %61, align 4
  br label %62

62:                                               ; preds = %56, %55
  ret void
}