; Function Attrs: nofree norecurse nosync nounwind memory(readwrite, inaccessiblemem: none) uwtable
define void @H5T__update_packed(ptr nocapture noundef readonly %0) local_unnamed_addr #4 {
  %2 = getelementptr inbounds i8, ptr %0, i64 40
  %3 = load ptr, ptr %2, align 8
  %4 = getelementptr inbounds i8, ptr %3, i64 16
  %5 = load i64, ptr %4, align 8
  %6 = getelementptr inbounds i8, ptr %3, i64 72
  %7 = load i64, ptr %6, align 8
  %8 = icmp eq i64 %5, %7
  %9 = getelementptr inbounds i8, ptr %3, i64 60
  br i1 %8, label %10, label %.loopexit.sink.split

10:                                               ; preds = %1
  store i8 1, ptr %9, align 4
  %11 = load ptr, ptr %2, align 8
  %12 = getelementptr inbounds i8, ptr %11, i64 52
  %13 = load i32, ptr %12, align 4
  %.not14 = icmp eq i32 %13, 0
  br i1 %.not14, label %.loopexit, label %.lr.ph

.lr.ph:                                           ; preds = %10
  %14 = getelementptr inbounds i8, ptr %11, i64 64
  %15 = load ptr, ptr %14, align 8
  %wide.trip.count = zext i32 %13 to i64
  br label %16

16:                                               ; preds = %.lr.ph, %H5T__is_packed.exit.thread
  %indvars.iv = phi i64 [ 0, %.lr.ph ], [ %indvars.iv.next, %H5T__is_packed.exit.thread ]
  %17 = getelementptr inbounds %struct.H5T_cmemb_t, ptr %15, i64 %indvars.iv, i32 3
  %18 = load ptr, ptr %17, align 8
  br label %19

19:                                               ; preds = %19, %16
  %.04.i = phi ptr [ %18, %16 ], [ %23, %19 ]
  %20 = getelementptr inbounds i8, ptr %.04.i, i64 40
  %21 = load ptr, ptr %20, align 8
  %22 = getelementptr inbounds i8, ptr %21, i64 32
  %23 = load ptr, ptr %22, align 8
  %.not.i = icmp eq ptr %23, null
  br i1 %.not.i, label %24, label %19

24:                                               ; preds = %19
  %25 = getelementptr inbounds i8, ptr %21, i64 12
  %26 = load i32, ptr %25, align 4
  %27 = icmp eq i32 %26, 6
  br i1 %27, label %H5T__is_packed.exit, label %H5T__is_packed.exit.thread

H5T__is_packed.exit:                              ; preds = %24
  %28 = getelementptr inbounds i8, ptr %21, i64 60
  %29 = load i8, ptr %28, align 4
  %30 = and i8 %29, 1
  %.not = icmp eq i8 %30, 0
  br i1 %.not, label %31, label %H5T__is_packed.exit.thread

31:                                               ; preds = %H5T__is_packed.exit
  %32 = getelementptr inbounds i8, ptr %11, i64 60
  br label %.loopexit.sink.split

H5T__is_packed.exit.thread:                       ; preds = %24, %H5T__is_packed.exit
  %indvars.iv.next = add nuw nsw i64 %indvars.iv, 1
  %exitcond.not = icmp eq i64 %indvars.iv.next, %wide.trip.count
  br i1 %exitcond.not, label %.loopexit, label %16

.loopexit.sink.split:                             ; preds = %1, %31
  %.sink = phi ptr [ %32, %31 ], [ %9, %1 ]
  store i8 0, ptr %.sink, align 4
  br label %.loopexit

.loopexit:                                        ; preds = %H5T__is_packed.exit.thread, %.loopexit.sink.split, %10
  ret void
}